target datalayout = "e-m:e-p270:32:32-p271:32:32-p272:64:64-i64:64-i128:128-f80:128-n8:16:32:64-S128"
target triple = "x86_64-pc-linux-gnu"

%struct.cb_node = type { [2 x ptr], i32, i8, [0 x i8] }

; Function Attrs: nounwind uwtable
define internal ptr @cb_node_of(ptr noundef %0) #0 {
  %2 = alloca ptr, align 8
  store ptr %0, ptr %2, align 8, !tbaa !25
  %3 = load ptr, ptr %2, align 8, !tbaa !25
  %4 = ptrtoint ptr %3 to i64
  %5 = sub i64 %4, 1
  %6 = inttoptr i64 %5 to ptr
  ret ptr %6
}

; Function Attrs: nounwind uwtable
define internal i32 @cb_descend(ptr noundef %0, ptr noundef %1, ptr noundef %2) #0 {
  %4 = alloca i32, align 4
  %5 = alloca ptr, align 8
  %6 = alloca ptr, align 8
  %7 = alloca ptr, align 8
  %8 = alloca ptr, align 8
  %9 = alloca i32, align 4
  store ptr %0, ptr %5, align 8, !tbaa !9
  store ptr %1, ptr %6, align 8, !tbaa !25
  store ptr %2, ptr %7, align 8, !tbaa !25
  %10 = load ptr, ptr %5, align 8, !tbaa !9
  %11 = ptrtoint ptr %10 to i64
  %12 = and i64 1, %11
  %13 = icmp ne i64 %12, 0
  br i1 %13, label %14, label %38

14:                                               ; preds = %3
  call void @llvm.lifetime.start.p0(i64 8, ptr %8) #3
  %15 = load ptr, ptr %5, align 8, !tbaa !9
  %16 = call ptr @cb_node_of(ptr noundef %15)
  store ptr %16, ptr %8, align 8, !tbaa !9
  call void @llvm.lifetime.start.p0(i64 4, ptr %9) #3
  %17 = load ptr, ptr %8, align 8, !tbaa !9
  %18 = getelementptr inbounds nuw %struct.cb_node, ptr %17, i32 0, i32 0
  %19 = getelementptr inbounds [2 x ptr], ptr %18, i64 0, i64 0
  %20 = load ptr, ptr %19, align 8, !tbaa !9
  %21 = load ptr, ptr %6, align 8, !tbaa !25
  %22 = load ptr, ptr %7, align 8, !tbaa !25
  %23 = call i32 @cb_descend(ptr noundef %20, ptr noundef %21, ptr noundef %22)
  store i32 %23, ptr %9, align 4, !tbaa !18
  %24 = load i32, ptr %9, align 4, !tbaa !18
  %25 = icmp eq i32 %24, 1
  br i1 %25, label %26, label %28

26:                                               ; preds = %14
  %27 = load i32, ptr %9, align 4, !tbaa !18
  br label %36

28:                                               ; preds = %14
  %29 = load ptr, ptr %8, align 8, !tbaa !9
  %30 = getelementptr inbounds nuw %struct.cb_node, ptr %29, i32 0, i32 0
  %31 = getelementptr inbounds [2 x ptr], ptr %30, i64 0, i64 1
  %32 = load ptr, ptr %31, align 8, !tbaa !9
  %33 = load ptr, ptr %6, align 8, !tbaa !25
  %34 = load ptr, ptr %7, align 8, !tbaa !25
  %35 = call i32 @cb_descend(ptr noundef %32, ptr noundef %33, ptr noundef %34)
  br label %36

36:                                               ; preds = %28, %26
  %37 = phi i32 [ %27, %26 ], [ %35, %28 ]
  store i32 %37, ptr %4, align 4
  call void @llvm.lifetime.end.p0(i64 4, ptr %9) #3
  call void @llvm.lifetime.end.p0(i64 8, ptr %8) #3
  br label %43

38:                                               ; preds = %3
  %39 = load ptr, ptr %6, align 8, !tbaa !25
  %40 = load ptr, ptr %5, align 8, !tbaa !9
  %41 = load ptr, ptr %7, align 8, !tbaa !25
  %42 = call i32 %39(ptr noundef %40, ptr noundef %41)
  store i32 %42, ptr %4, align 4
  br label %43

43:                                               ; preds = %38, %36
  %44 = load i32, ptr %4, align 4
  ret i32 %44
}