; Function Attrs: nounwind uwtable
define internal fastcc i32 @cb_descend(ptr noundef %0, ptr noundef readonly captures(none) %1, ptr noundef %2) unnamed_addr #2 {
  %4 = ptrtoint ptr %0 to i64
  %5 = and i64 %4, 1
  %.not17 = icmp eq i64 %5, 0
  br i1 %.not17, label %tailrecurse._crit_edge, label %.lr.ph

.lr.ph:                                           ; preds = %3, %tailrecurse
  %6 = phi i64 [ %14, %tailrecurse ], [ %4, %3 ]
  %7 = add nsw i64 %6, -1
  %8 = inttoptr i64 %7 to ptr
  %9 = load ptr, ptr %8, align 8, !tbaa !13
  %10 = tail call fastcc i32 @cb_descend(ptr noundef %9, ptr noundef %1, ptr noundef %2)
  %11 = icmp eq i32 %10, 1
  br i1 %11, label %.loopexit, label %tailrecurse

tailrecurse:                                      ; preds = %.lr.ph
  %12 = getelementptr inbounds nuw i8, ptr %8, i64 8
  %13 = load ptr, ptr %12, align 8, !tbaa !13
  %14 = ptrtoint ptr %13 to i64
  %15 = and i64 %14, 1
  %.not = icmp eq i64 %15, 0
  br i1 %.not, label %tailrecurse._crit_edge, label %.lr.ph

tailrecurse._crit_edge:                           ; preds = %tailrecurse, %3
  %.tr.lcssa = phi ptr [ %0, %3 ], [ %13, %tailrecurse ]
  %16 = tail call i32 %1(ptr noundef %.tr.lcssa, ptr noundef %2) #4
  br label %.loopexit

.loopexit:                                        ; preds = %.lr.ph, %tailrecurse._crit_edge
  %.0 = phi i32 [ %16, %tailrecurse._crit_edge ], [ 1, %.lr.ph ]
  ret i32 %.0
}